target datalayout = "e-m:e-p270:32:32-p271:32:32-p272:64:64-i64:64-i128:128-f80:128-n8:16:32:64-S128"
target triple = "x86_64-pc-linux-gnu"

%"class.google::protobuf::internal::GeneratedExtensionFinder" = type { %"class.google::protobuf::internal::ExtensionFinder", ptr }
%"class.google::protobuf::internal::ExtensionFinder" = type { ptr }
%"class.std::__cxx11::basic_string" = type { %"struct.std::__cxx11::basic_string<char>::_Alloc_hider", i64, %union.anon.0 }
%"struct.std::__cxx11::basic_string<char>::_Alloc_hider" = type { ptr }
%union.anon.0 = type { i64, [8 x i8] }
%"struct.google::protobuf::internal::ExtensionInfo" = type { i8, i8, i8, %union.anon, ptr }
%union.anon = type { %"struct.google::protobuf::internal::ExtensionInfo::EnumValidityCheck" }
%"struct.google::protobuf::internal::ExtensionInfo::EnumValidityCheck" = type { ptr, ptr }
%"class.google::protobuf::internal::InternalMetadata" = type { ptr }
%"struct.google::protobuf::internal::InternalMetadata::Container" = type { %"struct.google::protobuf::internal::InternalMetadata::ContainerBase", %"class.std::__cxx11::basic_string" }
%"struct.google::protobuf::internal::InternalMetadata::ContainerBase" = type { ptr }
%"class.google::protobuf::internal::ArenaImpl" = type { %"struct.std::atomic", %"struct.std::atomic", %"struct.std::atomic.12", i64, ptr }
%"struct.std::atomic" = type { %"struct.std::__atomic_base" }
%"struct.std::__atomic_base" = type { ptr }
%"struct.std::atomic.12" = type { %"struct.std::__atomic_base.13" }
%"struct.std::__atomic_base.13" = type { i64 }
%"struct.google::protobuf::internal::ArenaImpl::Options" = type { i64, i64, ptr, ptr, ptr }

; Function Attrs: mustprogress uwtable
define linkonce_odr noundef ptr @_ZN6google8protobuf5Arena15AllocateAlignedEm(ptr noundef nonnull align 8 dereferenceable(40) %0, i64 noundef %1) #6 comdat align 2 {
  %3 = alloca ptr, align 8
  %4 = alloca i64, align 8
  store ptr %0, ptr %3, align 8
  store i64 %1, ptr %4, align 8
  %5 = load ptr, ptr %3, align 8
  %6 = load i64, ptr %4, align 8
  %7 = call noundef i64 @_ZN6google8protobuf8internal10AlignUpTo8Em(i64 noundef %6)
  %8 = call noundef ptr @_ZN6google8protobuf5Arena21AllocateAlignedNoHookEm(ptr noundef nonnull align 8 dereferenceable(40) %5, i64 noundef %7)
  ret ptr %8
}

; Function Attrs: mustprogress nounwind uwtable
define linkonce_odr noundef zeroext i1 @_ZNK6google8protobuf8internal9ArenaImpl13record_allocsEv(ptr noundef nonnull align 8 dereferenceable(40) %0) #4 comdat align 2 {
  %2 = alloca ptr, align 8
  store ptr %0, ptr %2, align 8
  %3 = load ptr, ptr %2, align 8
  %4 = getelementptr inbounds %"class.google::protobuf::internal::ArenaImpl", ptr %3, i32 0, i32 3
  %5 = load i64, ptr %4, align 8
  %6 = and i64 %5, 1
  %7 = icmp ne i64 %6, 0
  ret i1 %7
}

; Function Attrs: mustprogress nounwind uwtable
define void @_ZN6google8protobuf8internal15ExtensionFinderD2Ev(ptr noundef nonnull align 8 dereferenceable(8) %0) unnamed_addr #4 align 2 {
  %2 = alloca ptr, align 8
  store ptr %0, ptr %2, align 8
  ret void
}

; Function Attrs: mustprogress uwtable
define linkonce_odr noundef ptr @_ZN6google8protobuf5Arena17AllocateAlignedToILm8EEEPvm(ptr noundef nonnull align 8 dereferenceable(40) %0, i64 noundef %1) #6 comdat align 2 {
  %3 = alloca ptr, align 8
  %4 = alloca i64, align 8
  store ptr %0, ptr %3, align 8
  store i64 %1, ptr %4, align 8
  %5 = load ptr, ptr %3, align 8
  %6 = load i64, ptr %4, align 8
  %7 = call noundef ptr @_ZN6google8protobuf5Arena15AllocateAlignedEm(ptr noundef nonnull align 8 dereferenceable(40) %5, i64 noundef %6)
  ret ptr %7
}

; Function Attrs: mustprogress uwtable
define linkonce_odr void @_ZNK6google8protobuf8internal9ArenaImpl11RecordAllocEPKSt9type_infom(ptr noundef nonnull align 8 dereferenceable(40) %0, ptr noundef %1, i64 noundef %2) #6 comdat align 2 {
  %4 = alloca ptr, align 8
  %5 = alloca ptr, align 8
  %6 = alloca i64, align 8
  store ptr %0, ptr %4, align 8
  store ptr %1, ptr %5, align 8
  store i64 %2, ptr %6, align 8
  %7 = load ptr, ptr %4, align 8
  %8 = call noundef zeroext i1 @_ZNK6google8protobuf8internal9ArenaImpl13record_allocsEv(ptr noundef nonnull align 8 dereferenceable(40) %7)
  br i1 %8, label %9, label %19

9:                                                ; preds = %3
  %10 = getelementptr inbounds %"class.google::protobuf::internal::ArenaImpl", ptr %7, i32 0, i32 4
  %11 = load ptr, ptr %10, align 8
  %12 = getelementptr inbounds %"struct.google::protobuf::internal::ArenaImpl::Options", ptr %11, i32 0, i32 4
  %13 = load ptr, ptr %12, align 8
  %14 = load ptr, ptr %5, align 8
  %15 = load i64, ptr %6, align 8
  %16 = load ptr, ptr %13, align 8
  %17 = getelementptr inbounds ptr, ptr %16, i64 5
  %18 = load ptr, ptr %17, align 8
  call void %18(ptr noundef nonnull align 8 dereferenceable(8) %13, ptr noundef %14, i64 noundef %15)
  br label %19

19:                                               ; preds = %9, %3
  ret void
}

; Function Attrs: mustprogress nounwind uwtable
define linkonce_odr noundef i64 @_ZN6google8protobuf8internal10AlignUpTo8Em(i64 noundef %0) #4 comdat {
  %2 = alloca i64, align 8
  store i64 %0, ptr %2, align 8
  %3 = load i64, ptr %2, align 8
  %4 = add i64 %3, 7
  %5 = and i64 %4, -8
  ret i64 %5
}

; Function Attrs: mustprogress nounwind uwtable
define linkonce_odr void @_ZN6google8protobuf8internal16InternalMetadata9ContainerINSt7__cxx1112basic_stringIcSt11char_traitsIcESaIcEEEEC2Ev(ptr noundef nonnull align 8 dereferenceable(40) %0) unnamed_addr #4 comdat align 2 {
  %2 = alloca ptr, align 8
  store ptr %0, ptr %2, align 8
  %3 = load ptr, ptr %2, align 8
  %4 = getelementptr inbounds %"struct.google::protobuf::internal::InternalMetadata::Container", ptr %3, i32 0, i32 1
  call void @_ZNSt7__cxx1112basic_stringIcSt11char_traitsIcESaIcEEC1Ev(ptr noundef nonnull align 8 dereferenceable(32) %4) #3
  ret void
}

; Function Attrs: mustprogress nounwind uwtable
define linkonce_odr noundef ptr @_ZNK6google8protobuf8internal16InternalMetadata8PtrValueINS0_5ArenaEEEPT_v(ptr noundef nonnull align 8 dereferenceable(8) %0) #4 comdat align 2 {
  %2 = alloca ptr, align 8
  store ptr %0, ptr %2, align 8
  %3 = load ptr, ptr %2, align 8
  %4 = getelementptr inbounds %"class.google::protobuf::internal::InternalMetadata", ptr %3, i32 0, i32 0
  %5 = load ptr, ptr %4, align 8
  %6 = ptrtoint ptr %5 to i64
  %7 = and i64 %6, -2
  %8 = inttoptr i64 %7 to ptr
  ret ptr %8
}

; Function Attrs: mustprogress nounwind uwtable
define linkonce_odr noundef ptr @_ZNK6google8protobuf8internal16InternalMetadata8PtrValueINS2_13ContainerBaseEEEPT_v(ptr noundef nonnull align 8 dereferenceable(8) %0) #4 comdat align 2 {
  %2 = alloca ptr, align 8
  store ptr %0, ptr %2, align 8
  %3 = load ptr, ptr %2, align 8
  %4 = getelementptr inbounds %"class.google::protobuf::internal::InternalMetadata", ptr %3, i32 0, i32 0
  %5 = load ptr, ptr %4, align 8
  %6 = ptrtoint ptr %5 to i64
  %7 = and i64 %6, -2
  %8 = inttoptr i64 %7 to ptr
  ret ptr %8
}

; Function Attrs: mustprogress nounwind uwtable
define linkonce_odr void @_ZN6google8protobuf8internal15ExtensionFinderC2Ev(ptr noundef nonnull align 8 dereferenceable(8) %0) unnamed_addr #4 comdat align 2 {
  %2 = alloca ptr, align 8
  store ptr %0, ptr %2, align 8
  %3 = load ptr, ptr %2, align 8
  store ptr getelementptr inbounds inrange(-16, 24) ({ [5 x ptr] }, ptr @_ZTVN6google8protobuf8internal15ExtensionFinderE, i32 0, i32 0, i32 2), ptr %3, align 8
  ret void
}

; Function Attrs: mustprogress nounwind uwtable
define linkonce_odr void @_ZN6google8protobuf8internal24GeneratedExtensionFinderD2Ev(ptr noundef nonnull align 8 dereferenceable(16) %0) unnamed_addr #4 comdat align 2 {
  %2 = alloca ptr, align 8
  store ptr %0, ptr %2, align 8
  %3 = load ptr, ptr %2, align 8
  call void @_ZN6google8protobuf8internal15ExtensionFinderD2Ev(ptr noundef nonnull align 8 dereferenceable(8) %3) #3
  ret void
}

; Function Attrs: mustprogress uwtable
define linkonce_odr noundef ptr @_ZN6google8protobuf8internal16InternalMetadata27mutable_unknown_fields_slowINSt7__cxx1112basic_stringIcSt11char_traitsIcESaIcEEEEEPT_v(ptr noundef nonnull align 8 dereferenceable(8) %0) #6 comdat align 2 {
  %2 = alloca ptr, align 8
  %3 = alloca ptr, align 8
  %4 = alloca i8, align 1
  %5 = alloca i64, align 8
  %6 = alloca ptr, align 8
  %7 = alloca i8, align 1
  %8 = alloca ptr, align 8
  %9 = alloca ptr, align 8
  %10 = alloca ptr, align 8
  %11 = alloca ptr, align 8
  %12 = alloca ptr, align 8
  %13 = alloca ptr, align 8
  %14 = alloca ptr, align 8
  %15 = alloca ptr, align 8
  %16 = alloca ptr, align 8
  %17 = alloca ptr, align 8
  %18 = alloca ptr, align 8
  %19 = alloca ptr, align 8
  %20 = alloca ptr, align 8
  store ptr %0, ptr %18, align 8
  %21 = load ptr, ptr %18, align 8
  store ptr %21, ptr %17, align 8
  %22 = load ptr, ptr %17, align 8
  store ptr %22, ptr %15, align 8
  %23 = load ptr, ptr %15, align 8
  store ptr %23, ptr %14, align 8
  %24 = load ptr, ptr %14, align 8
  %25 = load ptr, ptr %24, align 8
  %26 = ptrtoint ptr %25 to i64
  %27 = and i64 %26, 1
  %28 = trunc i64 %27 to i32
  %29 = icmp eq i32 %28, 1
  br i1 %29, label %30, label %33

30:                                               ; preds = %1
  %31 = call noundef ptr @_ZNK6google8protobuf8internal16InternalMetadata8PtrValueINS2_13ContainerBaseEEEPT_v(ptr noundef nonnull align 8 dereferenceable(8) %22)
  %32 = load ptr, ptr %31, align 8
  store ptr %32, ptr %16, align 8
  br label %35

33:                                               ; preds = %1
  %34 = call noundef ptr @_ZNK6google8protobuf8internal16InternalMetadata8PtrValueINS0_5ArenaEEEPT_v(ptr noundef nonnull align 8 dereferenceable(8) %22)
  store ptr %34, ptr %16, align 8
  br label %35

35:                                               ; preds = %33, %30
  %36 = load ptr, ptr %16, align 8
  store ptr %36, ptr %19, align 8
  %37 = load ptr, ptr %19, align 8
  store ptr %37, ptr %13, align 8
  %38 = load ptr, ptr %13, align 8
  store ptr %38, ptr %12, align 8
  %39 = load ptr, ptr %12, align 8
  store ptr %39, ptr %11, align 8
  %40 = load ptr, ptr %11, align 8
  store ptr %40, ptr %10, align 8
  %41 = load ptr, ptr %10, align 8
  store ptr %41, ptr %9, align 8
  %42 = load ptr, ptr %9, align 8
  %43 = icmp eq ptr %42, null
  br i1 %43, label %44, label %46

44:                                               ; preds = %35
  %45 = call noalias noundef nonnull ptr @_Znwm(i64 noundef 40) #17
  call void @llvm.memset.p0.i64(ptr align 16 %45, i8 0, i64 40, i1 false)
  call void @_ZN6google8protobuf8internal16InternalMetadata9ContainerINSt7__cxx1112basic_stringIcSt11char_traitsIcESaIcEEEEC2Ev(ptr noundef nonnull align 8 dereferenceable(40) %45) #3
  store ptr %45, ptr %8, align 8
  br label %64

46:                                               ; preds = %35
  %47 = load ptr, ptr %9, align 8
  store ptr %47, ptr %6, align 8
  store i8 0, ptr %7, align 1
  %48 = load ptr, ptr %6, align 8
  %49 = load i8, ptr %7, align 1
  %50 = trunc i8 %49 to i1
  store ptr %48, ptr %3, align 8
  %51 = zext i1 %50 to i8
  store i8 %51, ptr %4, align 1
  %52 = load ptr, ptr %3, align 8
  %53 = call noundef i64 @_ZN6google8protobuf8internal10AlignUpTo8Em(i64 noundef 40)
  store i64 %53, ptr %5, align 8
  %54 = load i64, ptr %5, align 8
  call void @_ZNK6google8protobuf8internal9ArenaImpl11RecordAllocEPKSt9type_infom(ptr noundef nonnull align 8 dereferenceable(40) %52, ptr noundef @_ZTIN6google8protobuf8internal16InternalMetadata9ContainerINSt7__cxx1112basic_stringIcSt11char_traitsIcESaIcEEEEE, i64 noundef %54)
  %55 = load i8, ptr %4, align 1
  %56 = trunc i8 %55 to i1
  br i1 %56, label %57, label %59

57:                                               ; preds = %46
  %58 = call noundef ptr @_ZN6google8protobuf5Arena17AllocateAlignedToILm8EEEPvm(ptr noundef nonnull align 8 dereferenceable(40) %52, i64 noundef 40)
  store ptr %58, ptr %2, align 8
  br label %62

59:                                               ; preds = %46
  %60 = load i64, ptr %5, align 8
  %61 = call noundef ptr @_ZN6google8protobuf8internal9ArenaImpl28AllocateAlignedAndAddCleanupEmPFvPvE(ptr noundef nonnull align 8 dereferenceable(40) %52, i64 noundef %60, ptr noundef @_ZN6google8protobuf8internal21arena_destruct_objectINS1_16InternalMetadata9ContainerINSt7__cxx1112basic_stringIcSt11char_traitsIcESaIcEEEEEEEvPv)
  store ptr %61, ptr %2, align 8
  br label %62

62:                                               ; preds = %59, %57
  %63 = load ptr, ptr %2, align 8
  call void @llvm.memset.p0.i64(ptr align 8 %63, i8 0, i64 40, i1 false)
  call void @_ZN6google8protobuf8internal16InternalMetadata9ContainerINSt7__cxx1112basic_stringIcSt11char_traitsIcESaIcEEEEC2Ev(ptr noundef nonnull align 8 dereferenceable(40) %63) #3
  store ptr %63, ptr %8, align 8
  br label %64

64:                                               ; preds = %62, %44
  %65 = load ptr, ptr %8, align 8
  store ptr %65, ptr %20, align 8
  %66 = load ptr, ptr %20, align 8
  %67 = getelementptr inbounds %"class.google::protobuf::internal::InternalMetadata", ptr %21, i32 0, i32 0
  store ptr %66, ptr %67, align 8
  %68 = getelementptr inbounds %"class.google::protobuf::internal::InternalMetadata", ptr %21, i32 0, i32 0
  %69 = load ptr, ptr %68, align 8
  %70 = ptrtoint ptr %69 to i64
  %71 = or i64 %70, 1
  %72 = inttoptr i64 %71 to ptr
  %73 = getelementptr inbounds %"class.google::protobuf::internal::InternalMetadata", ptr %21, i32 0, i32 0
  store ptr %72, ptr %73, align 8
  %74 = load ptr, ptr %19, align 8
  %75 = load ptr, ptr %20, align 8
  %76 = getelementptr inbounds %"struct.google::protobuf::internal::InternalMetadata::ContainerBase", ptr %75, i32 0, i32 0
  store ptr %74, ptr %76, align 8
  %77 = load ptr, ptr %20, align 8
  %78 = getelementptr inbounds %"struct.google::protobuf::internal::InternalMetadata::Container", ptr %77, i32 0, i32 1
  ret ptr %78
}

; Function Attrs: mustprogress nounwind uwtable
define linkonce_odr noundef ptr @_ZNK6google8protobuf8internal16InternalMetadata8PtrValueINS2_9ContainerINSt7__cxx1112basic_stringIcSt11char_traitsIcESaIcEEEEEEEPT_v(ptr noundef nonnull align 8 dereferenceable(8) %0) #4 comdat align 2 {
  %2 = alloca ptr, align 8
  store ptr %0, ptr %2, align 8
  %3 = load ptr, ptr %2, align 8
  %4 = getelementptr inbounds %"class.google::protobuf::internal::InternalMetadata", ptr %3, i32 0, i32 0
  %5 = load ptr, ptr %4, align 8
  %6 = ptrtoint ptr %5 to i64
  %7 = and i64 %6, -2
  %8 = inttoptr i64 %7 to ptr
  ret ptr %8
}

; Function Attrs: mustprogress nounwind uwtable
define linkonce_odr void @_ZN6google8protobuf8internal13ExtensionInfoC2Ev(ptr noundef nonnull align 8 dereferenceable(32) %0) unnamed_addr #4 comdat align 2 {
  %2 = alloca ptr, align 8
  store ptr %0, ptr %2, align 8
  ret void
}

; Function Attrs: mustprogress nounwind uwtable
define linkonce_odr void @_ZN6google8protobuf8internal24GeneratedExtensionFinderC2EPKNS0_11MessageLiteE(ptr noundef nonnull align 8 dereferenceable(16) %0, ptr noundef %1) unnamed_addr #4 comdat align 2 {
  %3 = alloca ptr, align 8
  %4 = alloca ptr, align 8
  store ptr %0, ptr %3, align 8
  store ptr %1, ptr %4, align 8
  %5 = load ptr, ptr %3, align 8
  call void @_ZN6google8protobuf8internal15ExtensionFinderC2Ev(ptr noundef nonnull align 8 dereferenceable(8) %5) #3
  store ptr getelementptr inbounds inrange(-16, 24) ({ [5 x ptr] }, ptr @_ZTVN6google8protobuf8internal24GeneratedExtensionFinderE, i32 0, i32 0, i32 2), ptr %5, align 8
  %6 = getelementptr inbounds %"class.google::protobuf::internal::GeneratedExtensionFinder", ptr %5, i32 0, i32 1
  %7 = load ptr, ptr %4, align 8
  store ptr %7, ptr %6, align 8
  ret void
}

; Function Attrs: mustprogress uwtable
define noundef ptr @_ZN6google8protobuf8internal12ExtensionSet10ParseFieldEmPKcPKNS0_11MessageLiteEPNS1_16InternalMetadataEPNS1_12ParseContextE(ptr noundef nonnull align 8 dereferenceable(24) %0, i64 noundef %1, ptr noundef %2, ptr noundef %3, ptr noundef %4, ptr noundef %5) #6 align 2 personality ptr @__gxx_personality_v0 {
  %7 = alloca ptr, align 8
  %8 = alloca ptr, align 8
  %9 = alloca ptr, align 8
  %10 = alloca ptr, align 8
  %11 = alloca ptr, align 8
  %12 = alloca ptr, align 8
  %13 = alloca i64, align 8
  %14 = alloca ptr, align 8
  %15 = alloca ptr, align 8
  %16 = alloca ptr, align 8
  %17 = alloca ptr, align 8
  %18 = alloca %"class.google::protobuf::internal::GeneratedExtensionFinder", align 8
  %19 = alloca i32, align 4
  %20 = alloca i8, align 1
  %21 = alloca %"struct.google::protobuf::internal::ExtensionInfo", align 8
  %22 = alloca ptr, align 8
  %23 = alloca i32, align 4
  %24 = alloca i32, align 4
  store ptr %0, ptr %12, align 8
  store i64 %1, ptr %13, align 8
  store ptr %2, ptr %14, align 8
  store ptr %3, ptr %15, align 8
  store ptr %4, ptr %16, align 8
  store ptr %5, ptr %17, align 8
  %25 = load ptr, ptr %12, align 8
  %26 = load ptr, ptr %15, align 8
  call void @_ZN6google8protobuf8internal24GeneratedExtensionFinderC2EPKNS0_11MessageLiteE(ptr noundef nonnull align 8 dereferenceable(16) %18, ptr noundef %26)
  %27 = load i64, ptr %13, align 8
  %28 = lshr i64 %27, 3
  %29 = trunc i64 %28 to i32
  store i32 %29, ptr %19, align 4
  invoke void @_ZN6google8protobuf8internal13ExtensionInfoC2Ev(ptr noundef nonnull align 8 dereferenceable(32) %21)
          to label %30 unwind label %63

30:                                               ; preds = %6
  %31 = load i64, ptr %13, align 8
  %32 = and i64 %31, 7
  %33 = trunc i64 %32 to i32
  %34 = load i32, ptr %19, align 4
  %35 = invoke noundef zeroext i1 @_ZN6google8protobuf8internal12ExtensionSet32FindExtensionInfoFromFieldNumberEiiPNS1_15ExtensionFinderEPNS1_13ExtensionInfoEPb(ptr noundef nonnull align 8 dereferenceable(24) %25, i32 noundef %33, i32 noundef %34, ptr noundef %18, ptr noundef %21, ptr noundef %20)
          to label %36 unwind label %63

36:                                               ; preds = %30
  br i1 %35, label %67, label %37

37:                                               ; preds = %36
  %38 = load i64, ptr %13, align 8
  %39 = trunc i64 %38 to i32
  %40 = load ptr, ptr %16, align 8
  store ptr %40, ptr %10, align 8
  %41 = load ptr, ptr %10, align 8
  store ptr %41, ptr %8, align 8
  %42 = load ptr, ptr %8, align 8
  store ptr %42, ptr %7, align 8
  %43 = load ptr, ptr %7, align 8
  %44 = load ptr, ptr %43, align 8
  %45 = ptrtoint ptr %44 to i64
  %46 = and i64 %45, 1
  %47 = trunc i64 %46 to i32
  %48 = icmp eq i32 %47, 1
  br label %49

49:                                               ; preds = %37
  br i1 %48, label %50, label %53

50:                                               ; preds = %49
  %51 = call noundef ptr @_ZNK6google8protobuf8internal16InternalMetadata8PtrValueINS2_9ContainerINSt7__cxx1112basic_stringIcSt11char_traitsIcESaIcEEEEEEEPT_v(ptr noundef nonnull align 8 dereferenceable(8) %41)
  %52 = getelementptr inbounds %"struct.google::protobuf::internal::InternalMetadata::Container", ptr %51, i32 0, i32 1
  store ptr %52, ptr %9, align 8
  br label %56

53:                                               ; preds = %49
  %54 = invoke noundef ptr @_ZN6google8protobuf8internal16InternalMetadata27mutable_unknown_fields_slowINSt7__cxx1112basic_stringIcSt11char_traitsIcESaIcEEEEEPT_v(ptr noundef nonnull align 8 dereferenceable(8) %41)
          to label %55 unwind label %63

55:                                               ; preds = %53
  store ptr %54, ptr %9, align 8
  br label %56

56:                                               ; preds = %55, %50
  %57 = load ptr, ptr %9, align 8
  br label %58

58:                                               ; preds = %56
  %59 = load ptr, ptr %14, align 8
  %60 = load ptr, ptr %17, align 8
  %61 = invoke noundef ptr @_ZN6google8protobuf8internal17UnknownFieldParseEjPNSt7__cxx1112basic_stringIcSt11char_traitsIcESaIcEEEPKcPNS1_12ParseContextE(i32 noundef %39, ptr noundef %57, ptr noundef %59, ptr noundef %60)
          to label %62 unwind label %63

62:                                               ; preds = %58
  store ptr %61, ptr %11, align 8
  store i32 1, ptr %24, align 4
  br label %76

63:                                               ; preds = %67, %58, %53, %30, %6
  %64 = landingpad { ptr, i32 }
          cleanup
  %65 = extractvalue { ptr, i32 } %64, 0
  store ptr %65, ptr %22, align 8
  %66 = extractvalue { ptr, i32 } %64, 1
  store i32 %66, ptr %23, align 4
  call void @_ZN6google8protobuf8internal24GeneratedExtensionFinderD2Ev(ptr noundef nonnull align 8 dereferenceable(16) %18) #3
  br label %78

67:                                               ; preds = %36
  %68 = load i32, ptr %19, align 4
  %69 = load i8, ptr %20, align 1
  %70 = trunc i8 %69 to i1
  %71 = load ptr, ptr %16, align 8
  %72 = load ptr, ptr %14, align 8
  %73 = load ptr, ptr %17, align 8
  %74 = invoke noundef ptr @_ZN6google8protobuf8internal12ExtensionSet27ParseFieldWithExtensionInfoINSt7__cxx1112basic_stringIcSt11char_traitsIcESaIcEEEEEPKcibRKNS1_13ExtensionInfoEPNS1_16InternalMetadataESB_PNS1_12ParseContextE(ptr noundef nonnull align 8 dereferenceable(24) %25, i32 noundef %68, i1 noundef zeroext %70, ptr noundef nonnull align 8 dereferenceable(32) %21, ptr noundef %71, ptr noundef %72, ptr noundef %73)
          to label %75 unwind label %63

75:                                               ; preds = %67
  store ptr %74, ptr %11, align 8
  store i32 1, ptr %24, align 4
  br label %76

76:                                               ; preds = %75, %62
  call void @_ZN6google8protobuf8internal24GeneratedExtensionFinderD2Ev(ptr noundef nonnull align 8 dereferenceable(16) %18) #3
  %77 = load ptr, ptr %11, align 8
  ret ptr %77

78:                                               ; preds = %63
  %79 = load ptr, ptr %22, align 8
  %80 = load i32, ptr %23, align 4
  %81 = insertvalue { ptr, i32 } poison, ptr %79, 0
  %82 = insertvalue { ptr, i32 } %81, i32 %80, 1
  resume { ptr, i32 } %82
}