; Function Attrs: mustprogress uwtable
define noundef ptr @_ZN6google8protobuf8internal12ExtensionSet10ParseFieldEmPKcPKNS0_11MessageLiteEPNS1_16InternalMetadataEPNS1_12ParseContextE(ptr noundef nonnull align 8 dereferenceable(24) %0, i64 noundef %1, ptr noundef %2, ptr noundef %3, ptr noundef %4, ptr noundef %5) local_unnamed_addr #8 align 2 personality ptr @__gxx_personality_v0 {
  %7 = alloca %"class.google::protobuf::internal::GeneratedExtensionFinder", align 8
  %8 = alloca i8, align 1
  %9 = alloca %"struct.google::protobuf::internal::ExtensionInfo", align 8
  store ptr getelementptr inbounds inrange(-16, 24) (i8, ptr @_ZTVN6google8protobuf8internal24GeneratedExtensionFinderE, i64 16), ptr %7, align 8
  %10 = getelementptr inbounds i8, ptr %7, i64 8
  store ptr %3, ptr %10, align 8
  %11 = lshr i64 %1, 3
  %12 = trunc i64 %11 to i32
  %13 = trunc i64 %1 to i32
  %14 = and i32 %13, 7
  %15 = call noundef zeroext i1 @_ZN6google8protobuf8internal12ExtensionSet32FindExtensionInfoFromFieldNumberEiiPNS1_15ExtensionFinderEPNS1_13ExtensionInfoEPb(ptr nonnull align 8 poison, i32 noundef %14, i32 noundef %12, ptr noundef nonnull %7, ptr noundef nonnull %9, ptr noundef nonnull %8)
  br i1 %15, label %46, label %16

16:                                               ; preds = %6
  %17 = load ptr, ptr %4, align 8
  %18 = ptrtoint ptr %17 to i64
  %19 = and i64 %18, 1
  %.not = icmp eq i64 %19, 0
  br i1 %.not, label %24, label %20

20:                                               ; preds = %16
  %21 = and i64 %18, -2
  %22 = inttoptr i64 %21 to ptr
  %23 = getelementptr inbounds i8, ptr %22, i64 8
  br label %44

24:                                               ; preds = %16
  %25 = icmp eq ptr %17, null
  br i1 %25, label %.noexc, label %27

.noexc:                                           ; preds = %24
  %26 = call noalias noundef nonnull dereferenceable(40) ptr @_Znwm(i64 noundef 40) #24
  call void @llvm.memset.p0.i64(ptr noundef nonnull align 16 dereferenceable(40) %26, i8 0, i64 40, i1 false)
  br label %_ZN6google8protobuf8internal16InternalMetadata27mutable_unknown_fields_slowINSt7__cxx1112basic_stringIcSt11char_traitsIcESaIcEEEEEPT_v.exit

27:                                               ; preds = %24
  %28 = getelementptr inbounds i8, ptr %17, i64 24
  %29 = load i64, ptr %28, align 8
  %30 = and i64 %29, 1
  %.not.i.i = icmp eq i64 %30, 0
  br i1 %.not.i.i, label %_ZNK6google8protobuf8internal9ArenaImpl11RecordAllocEPKSt9type_infom.exit.i, label %31

31:                                               ; preds = %27
  %32 = getelementptr inbounds i8, ptr %17, i64 32
  %33 = load ptr, ptr %32, align 8
  %34 = getelementptr inbounds i8, ptr %33, i64 32
  %35 = load ptr, ptr %34, align 8
  %36 = load ptr, ptr %35, align 8
  %37 = getelementptr inbounds i8, ptr %36, i64 40
  %38 = load ptr, ptr %37, align 8
  call void %38(ptr noundef nonnull align 8 dereferenceable(8) %35, ptr noundef nonnull @_ZTIN6google8protobuf8internal16InternalMetadata9ContainerINSt7__cxx1112basic_stringIcSt11char_traitsIcESaIcEEEEE, i64 noundef 40)
  br label %_ZNK6google8protobuf8internal9ArenaImpl11RecordAllocEPKSt9type_infom.exit.i

_ZNK6google8protobuf8internal9ArenaImpl11RecordAllocEPKSt9type_infom.exit.i: ; preds = %31, %27
  %39 = call noundef ptr @_ZN6google8protobuf8internal9ArenaImpl28AllocateAlignedAndAddCleanupEmPFvPvE(ptr noundef nonnull align 8 dereferenceable(40) %17, i64 noundef 40, ptr noundef nonnull @_ZN6google8protobuf8internal21arena_destruct_objectINS1_16InternalMetadata9ContainerINSt7__cxx1112basic_stringIcSt11char_traitsIcESaIcEEEEEEEvPv)
  call void @llvm.memset.p0.i64(ptr noundef nonnull align 8 dereferenceable(40) %39, i8 0, i64 40, i1 false)
  br label %_ZN6google8protobuf8internal16InternalMetadata27mutable_unknown_fields_slowINSt7__cxx1112basic_stringIcSt11char_traitsIcESaIcEEEEEPT_v.exit

_ZN6google8protobuf8internal16InternalMetadata27mutable_unknown_fields_slowINSt7__cxx1112basic_stringIcSt11char_traitsIcESaIcEEEEEPT_v.exit: ; preds = %.noexc, %_ZNK6google8protobuf8internal9ArenaImpl11RecordAllocEPKSt9type_infom.exit.i
  %.sink25.i = phi ptr [ %39, %_ZNK6google8protobuf8internal9ArenaImpl11RecordAllocEPKSt9type_infom.exit.i ], [ %26, %.noexc ]
  %40 = getelementptr inbounds i8, ptr %.sink25.i, i64 8
  call void @_ZNSt7__cxx1112basic_stringIcSt11char_traitsIcESaIcEEC1Ev(ptr noundef nonnull align 8 dereferenceable(32) %40) #23
  %41 = ptrtoint ptr %.sink25.i to i64
  %42 = or i64 %41, 1
  %43 = inttoptr i64 %42 to ptr
  store ptr %43, ptr %4, align 8
  store ptr %17, ptr %.sink25.i, align 8
  br label %44

44:                                               ; preds = %_ZN6google8protobuf8internal16InternalMetadata27mutable_unknown_fields_slowINSt7__cxx1112basic_stringIcSt11char_traitsIcESaIcEEEEEPT_v.exit, %20
  %.0 = phi ptr [ %23, %20 ], [ %40, %_ZN6google8protobuf8internal16InternalMetadata27mutable_unknown_fields_slowINSt7__cxx1112basic_stringIcSt11char_traitsIcESaIcEEEEEPT_v.exit ]
  %45 = call noundef ptr @_ZN6google8protobuf8internal17UnknownFieldParseEjPNSt7__cxx1112basic_stringIcSt11char_traitsIcESaIcEEEPKcPNS1_12ParseContextE(i32 noundef %13, ptr noundef nonnull %.0, ptr noundef %2, ptr noundef %5)
  br label %50

46:                                               ; preds = %6
  %47 = load i8, ptr %8, align 1
  %48 = trunc i8 %47 to i1
  %49 = call noundef ptr @_ZN6google8protobuf8internal12ExtensionSet27ParseFieldWithExtensionInfoINSt7__cxx1112basic_stringIcSt11char_traitsIcESaIcEEEEEPKcibRKNS1_13ExtensionInfoEPNS1_16InternalMetadataESB_PNS1_12ParseContextE(ptr noundef nonnull align 8 dereferenceable(24) %0, i32 noundef %12, i1 noundef zeroext %48, ptr noundef nonnull align 8 dereferenceable(32) %9, ptr noundef %4, ptr noundef %2, ptr noundef %5)
  br label %50

50:                                               ; preds = %44, %46
  %.019 = phi ptr [ %45, %44 ], [ %49, %46 ]
  ret ptr %.019
}